; Function Attrs: nounwind uwtable
define internal ptr @_curses_panel_new_panel(ptr noundef %0, ptr noundef %1) #0 {
  %3 = load ptr, ptr @PyCurses_API, align 8, !tbaa !16
  %4 = load ptr, ptr %3, align 8, !tbaa !16
  %5 = getelementptr i8, ptr %1, i64 8
  %.val = load ptr, ptr %5, align 8, !tbaa !3
  %.not.i = icmp eq ptr %.val, %4
  br i1 %.not.i, label %PyObject_TypeCheck.exit.thread, label %PyObject_TypeCheck.exit

PyObject_TypeCheck.exit:                          ; preds = %2
  %6 = tail call i32 @PyType_IsSubtype(ptr noundef %.val, ptr noundef %4) #4
  %.not7 = icmp eq i32 %6, 0
  br i1 %.not7, label %7, label %PyObject_TypeCheck.exit.thread

7:                                                ; preds = %PyObject_TypeCheck.exit
  %8 = load ptr, ptr @PyCurses_API, align 8, !tbaa !16
  %9 = load ptr, ptr %8, align 8, !tbaa !16
  %10 = getelementptr inbounds nuw i8, ptr %9, i64 24
  %11 = load ptr, ptr %10, align 8, !tbaa !27
  tail call void @_PyArg_BadArgument(ptr noundef nonnull @.str.2, ptr noundef nonnull @.str.7, ptr noundef %11, ptr noundef nonnull %1) #4
  br label %_curses_panel_new_panel_impl.exit

PyObject_TypeCheck.exit.thread:                   ; preds = %2, %PyObject_TypeCheck.exit
  %12 = tail call ptr @PyModule_GetState(ptr noundef %0) #4
  %13 = getelementptr inbounds nuw i8, ptr %1, i64 16
  %14 = load ptr, ptr %13, align 8, !tbaa !37
  %15 = tail call ptr @new_panel(ptr noundef %14) #4
  %16 = icmp eq ptr %15, null
  br i1 %16, label %17, label %19

17:                                               ; preds = %PyObject_TypeCheck.exit.thread
  %18 = load ptr, ptr %12, align 8, !tbaa !9
  tail call void @PyErr_SetString(ptr noundef %18, ptr noundef nonnull @catchall_NULL) #4
  br label %_curses_panel_new_panel_impl.exit

19:                                               ; preds = %PyObject_TypeCheck.exit.thread
  %20 = getelementptr i8, ptr %12, i64 8
  %.val.i = load ptr, ptr %20, align 8, !tbaa !12
  %21 = tail call ptr @_PyObject_New(ptr noundef %.val.i) #4
  %22 = icmp eq ptr %21, null
  br i1 %22, label %_curses_panel_new_panel_impl.exit, label %23

23:                                               ; preds = %19
  %24 = getelementptr inbounds nuw i8, ptr %21, i64 16
  store ptr %15, ptr %24, align 8, !tbaa !21
  %25 = tail call ptr @PyMem_Malloc(i64 noundef 16) #4
  %26 = icmp eq ptr %25, null
  br i1 %26, label %27, label %35

27:                                               ; preds = %23
  %28 = tail call ptr @PyErr_NoMemory() #4
  %29 = getelementptr inbounds nuw i8, ptr %21, i64 24
  store ptr null, ptr %29, align 8, !tbaa !40
  %30 = load i32, ptr %21, align 8, !tbaa !14
  %.not.i.i.i = icmp sgt i32 %30, -1
  br i1 %.not.i.i.i, label %31, label %_curses_panel_new_panel_impl.exit

31:                                               ; preds = %27
  %32 = add nsw i32 %30, -1
  store i32 %32, ptr %21, align 8, !tbaa !14
  %33 = icmp eq i32 %32, 0
  br i1 %33, label %34, label %_curses_panel_new_panel_impl.exit

34:                                               ; preds = %31
  tail call void @_Py_Dealloc(ptr noundef nonnull %21) #4
  br label %_curses_panel_new_panel_impl.exit

35:                                               ; preds = %23
  store ptr %21, ptr %25, align 8, !tbaa !19
  %36 = load ptr, ptr @lop, align 8, !tbaa !17
  %37 = getelementptr inbounds nuw i8, ptr %25, i64 8
  store ptr %36, ptr %37, align 8, !tbaa !24
  store ptr %25, ptr @lop, align 8, !tbaa !17
  %38 = load i32, ptr %1, align 8, !tbaa !14
  %39 = icmp slt i32 %38, 0
  br i1 %39, label %_Py_NewRef.exit.i.i, label %40

40:                                               ; preds = %35
  %41 = add nuw i32 %38, 1
  store i32 %41, ptr %1, align 8, !tbaa !14
  br label %_Py_NewRef.exit.i.i

_Py_NewRef.exit.i.i:                              ; preds = %40, %35
  %42 = getelementptr inbounds nuw i8, ptr %21, i64 24
  store ptr %1, ptr %42, align 8, !tbaa !40
  br label %_curses_panel_new_panel_impl.exit

_curses_panel_new_panel_impl.exit:                ; preds = %_Py_NewRef.exit.i.i, %34, %31, %27, %19, %17, %7
  %.0 = phi ptr [ null, %7 ], [ null, %17 ], [ %21, %_Py_NewRef.exit.i.i ], [ null, %19 ], [ null, %27 ], [ null, %31 ], [ null, %34 ]
  ret ptr %.0
}